target datalayout = "e-m:e-p270:32:32-p271:32:32-p272:64:64-i64:64-i128:128-f80:128-n8:16:32:64-S128"
target triple = "x86_64-pc-linux-gnu"

%"struct.Luau::AstName" = type { ptr }

@.str = private unnamed_addr constant [3 x i8] c"_G\00", align 1

; Function Attrs: mustprogress uwtable
define dso_local void @_ZN4Luau7Compile13assignMutableERNS_12DenseHashMapINS_7AstNameENS0_6GlobalESt4hashIS2_ESt8equal_toIS2_EEERKNS_12AstNameTableEPKPKc(ptr noundef nonnull align 8 dereferenceable(40) %0, ptr noundef nonnull align 8 dereferenceable(56) %1, ptr noundef %2) #2 {
  %4 = alloca ptr, align 8
  %5 = alloca ptr, align 8
  %6 = alloca ptr, align 8
  %7 = alloca %"struct.Luau::AstName", align 8
  %8 = alloca ptr, align 8
  %9 = alloca %"struct.Luau::AstName", align 8
  store ptr %0, ptr %4, align 8, !tbaa !8
  store ptr %1, ptr %5, align 8, !tbaa !11
  store ptr %2, ptr %6, align 8, !tbaa !13
  call void @llvm.lifetime.start.p0(i64 8, ptr %7) #11
  %10 = load ptr, ptr %5, align 8, !tbaa !11
  %11 = call ptr @_ZNK4Luau12AstNameTable3getEPKc(ptr noundef nonnull align 8 dereferenceable(56) %10, ptr noundef @.str)
  %12 = getelementptr inbounds nuw %"struct.Luau::AstName", ptr %7, i32 0, i32 0
  store ptr %11, ptr %12, align 8
  %13 = getelementptr inbounds nuw %"struct.Luau::AstName", ptr %7, i32 0, i32 0
  %14 = load ptr, ptr %13, align 8, !tbaa !16
  %15 = icmp ne ptr %14, null
  br i1 %15, label %16, label %19

16:                                               ; preds = %3
  %17 = load ptr, ptr %4, align 8, !tbaa !8
  %18 = call noundef nonnull align 4 dereferenceable(4) ptr @_ZN4Luau12DenseHashMapINS_7AstNameENS_7Compile6GlobalESt4hashIS1_ESt8equal_toIS1_EEixERKS1_(ptr noundef nonnull align 8 dereferenceable(40) %17, ptr noundef nonnull align 8 dereferenceable(8) %7)
  store i32 1, ptr %18, align 4, !tbaa !19
  br label %19

19:                                               ; preds = %16, %3
  call void @llvm.lifetime.end.p0(i64 8, ptr %7) #11
  %20 = load ptr, ptr %6, align 8, !tbaa !13
  %21 = icmp ne ptr %20, null
  br i1 %21, label %22, label %46

22:                                               ; preds = %19
  call void @llvm.lifetime.start.p0(i64 8, ptr %8) #11
  %23 = load ptr, ptr %6, align 8, !tbaa !13
  store ptr %23, ptr %8, align 8, !tbaa !13
  br label %24

24:                                               ; preds = %42, %22
  %25 = load ptr, ptr %8, align 8, !tbaa !13
  %26 = load ptr, ptr %25, align 8, !tbaa !21
  %27 = icmp ne ptr %26, null
  br i1 %27, label %29, label %28

28:                                               ; preds = %24
  call void @llvm.lifetime.end.p0(i64 8, ptr %8) #11
  br label %45

29:                                               ; preds = %24
  call void @llvm.lifetime.start.p0(i64 8, ptr %9) #11
  %30 = load ptr, ptr %5, align 8, !tbaa !11
  %31 = load ptr, ptr %8, align 8, !tbaa !13
  %32 = load ptr, ptr %31, align 8, !tbaa !21
  %33 = call ptr @_ZNK4Luau12AstNameTable3getEPKc(ptr noundef nonnull align 8 dereferenceable(56) %30, ptr noundef %32)
  %34 = getelementptr inbounds nuw %"struct.Luau::AstName", ptr %9, i32 0, i32 0
  store ptr %33, ptr %34, align 8
  %35 = getelementptr inbounds nuw %"struct.Luau::AstName", ptr %9, i32 0, i32 0
  %36 = load ptr, ptr %35, align 8, !tbaa !16
  %37 = icmp ne ptr %36, null
  br i1 %37, label %38, label %41

38:                                               ; preds = %29
  %39 = load ptr, ptr %4, align 8, !tbaa !8
  %40 = call noundef nonnull align 4 dereferenceable(4) ptr @_ZN4Luau12DenseHashMapINS_7AstNameENS_7Compile6GlobalESt4hashIS1_ESt8equal_toIS1_EEixERKS1_(ptr noundef nonnull align 8 dereferenceable(40) %39, ptr noundef nonnull align 8 dereferenceable(8) %9)
  store i32 1, ptr %40, align 4, !tbaa !19
  br label %41

41:                                               ; preds = %38, %29
  call void @llvm.lifetime.end.p0(i64 8, ptr %9) #11
  br label %42

42:                                               ; preds = %41
  %43 = load ptr, ptr %8, align 8, !tbaa !13
  %44 = getelementptr inbounds nuw ptr, ptr %43, i32 1
  store ptr %44, ptr %8, align 8, !tbaa !13
  br label %24, !llvm.loop !22

45:                                               ; preds = %28
  br label %46

46:                                               ; preds = %45, %19
  ret void
}