; Function Attrs: mustprogress uwtable
define dso_local void @_ZN4Luau7Compile13assignMutableERNS_12DenseHashMapINS_7AstNameENS0_6GlobalESt4hashIS2_ESt8equal_toIS2_EEERKNS_12AstNameTableEPKPKc(ptr noundef nonnull align 8 dereferenceable(40) %0, ptr noundef nonnull align 8 dereferenceable(56) %1, ptr noundef readonly %2) local_unnamed_addr #2 {
  %4 = alloca %"struct.Luau::AstName", align 8
  %5 = alloca %"struct.Luau::AstName", align 8
  call void @llvm.lifetime.start.p0(i64 8, ptr nonnull %4) #11
  %6 = tail call ptr @_ZNK4Luau12AstNameTable3getEPKc(ptr noundef nonnull align 8 dereferenceable(56) %1, ptr noundef nonnull @.str)
  store ptr %6, ptr %4, align 8
  %.not = icmp eq ptr %6, null
  br i1 %.not, label %9, label %7

7:                                                ; preds = %3
  %8 = call noundef nonnull align 4 dereferenceable(4) ptr @_ZN4Luau12DenseHashMapINS_7AstNameENS_7Compile6GlobalESt4hashIS1_ESt8equal_toIS1_EEixERKS1_(ptr noundef nonnull align 8 dereferenceable(40) %0, ptr noundef nonnull align 8 dereferenceable(8) %4)
  store i32 1, ptr %8, align 4, !tbaa !8
  br label %9

9:                                                ; preds = %7, %3
  call void @llvm.lifetime.end.p0(i64 8, ptr nonnull %4) #11
  %.not10 = icmp eq ptr %2, null
  br i1 %.not10, label %.loopexit, label %.preheader

.preheader:                                       ; preds = %9
  %10 = load ptr, ptr %2, align 8, !tbaa !10
  %.not1113 = icmp eq ptr %10, null
  br i1 %.not1113, label %.loopexit, label %.lr.ph

.lr.ph:                                           ; preds = %.preheader, %15
  %11 = phi ptr [ %17, %15 ], [ %10, %.preheader ]
  %.014 = phi ptr [ %16, %15 ], [ %2, %.preheader ]
  call void @llvm.lifetime.start.p0(i64 8, ptr nonnull %5) #11
  %12 = call ptr @_ZNK4Luau12AstNameTable3getEPKc(ptr noundef nonnull align 8 dereferenceable(56) %1, ptr noundef nonnull %11)
  store ptr %12, ptr %5, align 8
  %.not12 = icmp eq ptr %12, null
  br i1 %.not12, label %15, label %13

13:                                               ; preds = %.lr.ph
  %14 = call noundef nonnull align 4 dereferenceable(4) ptr @_ZN4Luau12DenseHashMapINS_7AstNameENS_7Compile6GlobalESt4hashIS1_ESt8equal_toIS1_EEixERKS1_(ptr noundef nonnull align 8 dereferenceable(40) %0, ptr noundef nonnull align 8 dereferenceable(8) %5)
  store i32 1, ptr %14, align 4, !tbaa !8
  br label %15

15:                                               ; preds = %13, %.lr.ph
  call void @llvm.lifetime.end.p0(i64 8, ptr nonnull %5) #11
  %16 = getelementptr inbounds nuw i8, ptr %.014, i64 8
  %17 = load ptr, ptr %16, align 8, !tbaa !10
  %.not11 = icmp eq ptr %17, null
  br i1 %.not11, label %.loopexit, label %.lr.ph, !llvm.loop !13

.loopexit:                                        ; preds = %15, %.preheader, %9
  ret void
}